target datalayout = "e-m:e-p270:32:32-p271:32:32-p272:64:64-i64:64-i128:128-f80:128-n8:16:32:64-S128"
target triple = "x86_64-pc-linux-gnu"

; Function Attrs: null_pointer_is_valid sspstrong uwtable
define internal i32 @get_dlsw_pdu_len(ptr noundef %0, ptr noundef %1, i32 noundef %2, ptr noundef %3) #0 {
  %5 = alloca ptr, align 8
  %6 = alloca ptr, align 8
  %7 = alloca i32, align 4
  %8 = alloca ptr, align 8
  %9 = alloca i32, align 4
  %10 = alloca i32, align 4
  store ptr %0, ptr %5, align 8
  store ptr %1, ptr %6, align 8
  store i32 %2, ptr %7, align 4
  store ptr %3, ptr %8, align 8
  call void @llvm.lifetime.start.p0(i64 4, ptr %9) #4
  call void @llvm.lifetime.start.p0(i64 4, ptr %10) #4
  %11 = load ptr, ptr %6, align 8
  %12 = load i32, ptr %7, align 4
  %13 = add i32 %12, 1
  %14 = call zeroext i8 @tvb_get_uint8(ptr noundef %11, i32 noundef %13)
  %15 = zext i8 %14 to i32
  store i32 %15, ptr %9, align 4
  %16 = load ptr, ptr %6, align 8
  %17 = load i32, ptr %7, align 4
  %18 = add i32 %17, 2
  %19 = call zeroext i16 @tvb_get_ntohs(ptr noundef %16, i32 noundef %18)
  %20 = zext i16 %19 to i32
  store i32 %20, ptr %10, align 4
  %21 = load i32, ptr %9, align 4
  %22 = load i32, ptr %10, align 4
  %23 = add i32 %21, %22
  call void @llvm.lifetime.end.p0(i64 4, ptr %10) #4
  call void @llvm.lifetime.end.p0(i64 4, ptr %9) #4
  ret i32 %23
}