; Function Attrs: null_pointer_is_valid sspstrong uwtable
define internal range(i32 0, 65791) i32 @get_dlsw_pdu_len(ptr readnone captures(none) %0, ptr noundef %1, i32 noundef %2, ptr readnone captures(none) %3) #0 {
  %5 = add i32 %2, 1
  %6 = tail call zeroext i8 @tvb_get_uint8(ptr noundef %1, i32 noundef %5)
  %7 = zext i8 %6 to i32
  %8 = add i32 %2, 2
  %9 = tail call zeroext i16 @tvb_get_ntohs(ptr noundef %1, i32 noundef %8)
  %10 = zext i16 %9 to i32
  %11 = add nuw nsw i32 %10, %7
  ret i32 %11
}